; ModuleID = '27/438.c'
source_filename = "27/438.c"
target datalayout = "e-m:e-p270:32:32-p271:32:32-p272:64:64-i64:64-f80:128-n8:16:32:64-S128"
target triple = "x86_64-pc-linux-gnu"

@.str = private unnamed_addr constant [3 x i8] c"%d\00", align 1
@.str.1 = private unnamed_addr constant [10 x i8] c"%lf%lf%lf\00", align 1
@.str.2 = private unnamed_addr constant [19 x i8] c"x1=%.5lf;x2=%.5lf\0A\00", align 1
@.str.3 = private unnamed_addr constant [33 x i8] c"x1=%.5lf+%.5lfi;x2=%.5lf-%.5lfi\0A\00", align 1
@.str.4 = private unnamed_addr constant [13 x i8] c"x1=x2=%.5lf\0A\00", align 1

; Function Attrs: noinline nounwind uwtable
define dso_local i32 @main() #0 {
  %1 = alloca i32, align 4
  %2 = alloca i32, align 4
  %3 = alloca [100 x double], align 16
  %4 = alloca [100 x double], align 16
  %5 = alloca [100 x double], align 16
  %6 = alloca i32, align 4
  %7 = alloca [100 x double], align 16
  %8 = alloca double, align 8
  %9 = alloca double, align 8
  %10 = alloca double, align 8
  %11 = alloca double, align 8
  %12 = alloca double, align 8
  %13 = alloca double, align 8
  %14 = alloca [100 x double], align 16
  %15 = alloca [100 x double], align 16
  store i32 0, i32* %1, align 4
  %16 = call i32 (i8*, ...) @__isoc99_scanf(i8* getelementptr inbounds ([3 x i8], [3 x i8]* @.str, i64 0, i64 0), i32* %2)
  store i32 1, i32* %6, align 4
  br label %17

17:                                               ; preds = %78, %0
  %18 = load i32, i32* %6, align 4
  %19 = load i32, i32* %2, align 4
  %20 = icmp sle i32 %18, %19
  br i1 %20, label %21, label %81

21:                                               ; preds = %17
  %22 = load i32, i32* %6, align 4
  %23 = sext i32 %22 to i64
  %24 = getelementptr inbounds [100 x double], [100 x double]* %3, i64 0, i64 %23
  %25 = load i32, i32* %6, align 4
  %26 = sext i32 %25 to i64
  %27 = getelementptr inbounds [100 x double], [100 x double]* %4, i64 0, i64 %26
  %28 = load i32, i32* %6, align 4
  %29 = sext i32 %28 to i64
  %30 = getelementptr inbounds [100 x double], [100 x double]* %5, i64 0, i64 %29
  %31 = call i32 (i8*, ...) @__isoc99_scanf(i8* getelementptr inbounds ([10 x i8], [10 x i8]* @.str.1, i64 0, i64 0), double* %24, double* %27, double* %30)
  %32 = load i32, i32* %6, align 4
  %33 = sext i32 %32 to i64
  %34 = getelementptr inbounds [100 x double], [100 x double]* %4, i64 0, i64 %33
  %35 = load double, double* %34, align 8
  %36 = load i32, i32* %6, align 4
  %37 = sext i32 %36 to i64
  %38 = getelementptr inbounds [100 x double], [100 x double]* %4, i64 0, i64 %37
  %39 = load double, double* %38, align 8
  %40 = fmul double %35, %39
  %41 = load i32, i32* %6, align 4
  %42 = sext i32 %41 to i64
  %43 = getelementptr inbounds [100 x double], [100 x double]* %3, i64 0, i64 %42
  %44 = load double, double* %43, align 8
  %45 = fmul double 4.000000e+00, %44
  %46 = load i32, i32* %6, align 4
  %47 = sext i32 %46 to i64
  %48 = getelementptr inbounds [100 x double], [100 x double]* %5, i64 0, i64 %47
  %49 = load double, double* %48, align 8
  %50 = fmul double %45, %49
  %51 = fsub double %40, %50
  %52 = load i32, i32* %6, align 4
  %53 = sext i32 %52 to i64
  %54 = getelementptr inbounds [100 x double], [100 x double]* %7, i64 0, i64 %53
  store double %51, double* %54, align 8
  %55 = load i32, i32* %6, align 4
  %56 = sext i32 %55 to i64
  %57 = getelementptr inbounds [100 x double], [100 x double]* %4, i64 0, i64 %56
  %58 = load double, double* %57, align 8
  %59 = fcmp oeq double %58, 0.000000e+00
  br i1 %59, label %60, label %61

60:                                               ; preds = %21
  br label %73

61:                                               ; preds = %21
  %62 = load i32, i32* %6, align 4
  %63 = sext i32 %62 to i64
  %64 = getelementptr inbounds [100 x double], [100 x double]* %4, i64 0, i64 %63
  %65 = load double, double* %64, align 8
  %66 = fneg double %65
  %67 = load i32, i32* %6, align 4
  %68 = sext i32 %67 to i64
  %69 = getelementptr inbounds [100 x double], [100 x double]* %3, i64 0, i64 %68
  %70 = load double, double* %69, align 8
  %71 = fmul double 2.000000e+00, %70
  %72 = fdiv double %66, %71
  br label %73

73:                                               ; preds = %61, %60
  %74 = phi double [ 0.000000e+00, %60 ], [ %72, %61 ]
  %75 = load i32, i32* %6, align 4
  %76 = sext i32 %75 to i64
  %77 = getelementptr inbounds [100 x double], [100 x double]* %15, i64 0, i64 %76
  store double %74, double* %77, align 8
  br label %78

78:                                               ; preds = %73
  %79 = load i32, i32* %6, align 4
  %80 = add nsw i32 %79, 1
  store i32 %80, i32* %6, align 4
  br label %17

81:                                               ; preds = %17
  store i32 1, i32* %6, align 4
  br label %82

82:                                               ; preds = %191, %81
  %83 = load i32, i32* %6, align 4
  %84 = load i32, i32* %2, align 4
  %85 = icmp sle i32 %83, %84
  br i1 %85, label %86, label %194

86:                                               ; preds = %82
  %87 = load i32, i32* %6, align 4
  %88 = sext i32 %87 to i64
  %89 = getelementptr inbounds [100 x double], [100 x double]* %7, i64 0, i64 %88
  %90 = load double, double* %89, align 8
  %91 = fcmp ogt double %90, 0.000000e+00
  br i1 %91, label %92, label %128

92:                                               ; preds = %86
  %93 = load i32, i32* %6, align 4
  %94 = sext i32 %93 to i64
  %95 = getelementptr inbounds [100 x double], [100 x double]* %15, i64 0, i64 %94
  %96 = load double, double* %95, align 8
  %97 = load i32, i32* %6, align 4
  %98 = sext i32 %97 to i64
  %99 = getelementptr inbounds [100 x double], [100 x double]* %7, i64 0, i64 %98
  %100 = load double, double* %99, align 8
  %101 = call double @sqrt(double %100) #3
  %102 = load i32, i32* %6, align 4
  %103 = sext i32 %102 to i64
  %104 = getelementptr inbounds [100 x double], [100 x double]* %3, i64 0, i64 %103
  %105 = load double, double* %104, align 8
  %106 = fmul double 2.000000e+00, %105
  %107 = fdiv double %101, %106
  %108 = fadd double %96, %107
  store double %108, double* %8, align 8
  %109 = load i32, i32* %6, align 4
  %110 = sext i32 %109 to i64
  %111 = getelementptr inbounds [100 x double], [100 x double]* %15, i64 0, i64 %110
  %112 = load double, double* %111, align 8
  %113 = load i32, i32* %6, align 4
  %114 = sext i32 %113 to i64
  %115 = getelementptr inbounds [100 x double], [100 x double]* %7, i64 0, i64 %114
  %116 = load double, double* %115, align 8
  %117 = call double @sqrt(double %116) #3
  %118 = load i32, i32* %6, align 4
  %119 = sext i32 %118 to i64
  %120 = getelementptr inbounds [100 x double], [100 x double]* %3, i64 0, i64 %119
  %121 = load double, double* %120, align 8
  %122 = fmul double 2.000000e+00, %121
  %123 = fdiv double %117, %122
  %124 = fsub double %112, %123
  store double %124, double* %9, align 8
  %125 = load double, double* %8, align 8
  %126 = load double, double* %9, align 8
  %127 = call i32 (i8*, ...) @printf(i8* getelementptr inbounds ([19 x i8], [19 x i8]* @.str.2, i64 0, i64 0), double %125, double %126)
  br label %191

128:                                              ; preds = %86
  %129 = load i32, i32* %6, align 4
  %130 = sext i32 %129 to i64
  %131 = getelementptr inbounds [100 x double], [100 x double]* %7, i64 0, i64 %130
  %132 = load double, double* %131, align 8
  %133 = fcmp olt double %132, 0.000000e+00
  br i1 %133, label %134, label %174

134:                                              ; preds = %128
  %135 = load i32, i32* %6, align 4
  %136 = sext i32 %135 to i64
  %137 = getelementptr inbounds [100 x double], [100 x double]* %7, i64 0, i64 %136
  %138 = load double, double* %137, align 8
  %139 = fneg double %138
  %140 = call double @sqrt(double %139) #3
  %141 = load i32, i32* %6, align 4
  %142 = sext i32 %141 to i64
  %143 = getelementptr inbounds [100 x double], [100 x double]* %14, i64 0, i64 %142
  store double %140, double* %143, align 8
  %144 = load i32, i32* %6, align 4
  %145 = sext i32 %144 to i64
  %146 = getelementptr inbounds [100 x double], [100 x double]* %15, i64 0, i64 %145
  %147 = load double, double* %146, align 8
  store double %147, double* %10, align 8
  %148 = load i32, i32* %6, align 4
  %149 = sext i32 %148 to i64
  %150 = getelementptr inbounds [100 x double], [100 x double]* %14, i64 0, i64 %149
  %151 = load double, double* %150, align 8
  %152 = load i32, i32* %6, align 4
  %153 = sext i32 %152 to i64
  %154 = getelementptr inbounds [100 x double], [100 x double]* %3, i64 0, i64 %153
  %155 = load double, double* %154, align 8
  %156 = fmul double 2.000000e+00, %155
  %157 = fdiv double %151, %156
  store double %157, double* %11, align 8
  %158 = load double, double* %10, align 8
  store double %158, double* %12, align 8
  %159 = load i32, i32* %6, align 4
  %160 = sext i32 %159 to i64
  %161 = getelementptr inbounds [100 x double], [100 x double]* %14, i64 0, i64 %160
  %162 = load double, double* %161, align 8
  %163 = load i32, i32* %6, align 4
  %164 = sext i32 %163 to i64
  %165 = getelementptr inbounds [100 x double], [100 x double]* %3, i64 0, i64 %164
  %166 = load double, double* %165, align 8
  %167 = fmul double 2.000000e+00, %166
  %168 = fdiv double %162, %167
  store double %168, double* %13, align 8
  %169 = load double, double* %10, align 8
  %170 = load double, double* %11, align 8
  %171 = load double, double* %12, align 8
  %172 = load double, double* %13, align 8
  %173 = call i32 (i8*, ...) @printf(i8* getelementptr inbounds ([33 x i8], [33 x i8]* @.str.3, i64 0, i64 0), double %169, double %170, double %171, double %172)
  br label %191

174:                                              ; preds = %128
  %175 = load i32, i32* %6, align 4
  %176 = sext i32 %175 to i64
  %177 = getelementptr inbounds [100 x double], [100 x double]* %7, i64 0, i64 %176
  %178 = load double, double* %177, align 8
  %179 = call double @pow(double 1.000000e+01, double -8.000000e+00) #3
  %180 = fcmp olt double %178, %179
  br i1 %180, label %181, label %188

181:                                              ; preds = %174
  %182 = load i32, i32* %6, align 4
  %183 = sext i32 %182 to i64
  %184 = getelementptr inbounds [100 x double], [100 x double]* %15, i64 0, i64 %183
  %185 = load double, double* %184, align 8
  store double %185, double* %8, align 8
  %186 = load double, double* %8, align 8
  %187 = call i32 (i8*, ...) @printf(i8* getelementptr inbounds ([13 x i8], [13 x i8]* @.str.4, i64 0, i64 0), double %186)
  br label %188

188:                                              ; preds = %181, %174
  br label %189

189:                                              ; preds = %188
  br label %190

190:                                              ; preds = %189
  br label %191

191:                                              ; preds = %190, %134, %92
  %192 = load i32, i32* %6, align 4
  %193 = add nsw i32 %192, 1
  store i32 %193, i32* %6, align 4
  br label %82

194:                                              ; preds = %82
  ret i32 0
}

declare dso_local i32 @__isoc99_scanf(i8*, ...) #1

; Function Attrs: nounwind
declare dso_local double @sqrt(double) #2

declare dso_local i32 @printf(i8*, ...) #1

; Function Attrs: nounwind
declare dso_local double @pow(double, double) #2


!llvm.module.flags = !{!0}
!llvm.ident = !{!1}

!0 = !{i32 1, !"wchar_size", i32 4}
!1 = !{!"clang version 10.0.0-4ubuntu1 "}
